; Function Attrs: mustprogress uwtable
define hidden void @_ZN3api6objectC2ERNS_7contextE(ptr noundef nonnull align 8 dereferenceable(24) initializes((0, 12), (16, 24)) %0, ptr noundef nonnull align 8 dereferenceable(3056) %1) unnamed_addr #3 align 2 {
  %3 = alloca %struct._key_data, align 8
  store ptr getelementptr inbounds nuw inrange(-16, 16) (i8, ptr @_ZTVN3api6objectE, i64 16), ptr %0, align 8, !tbaa !3
  %4 = getelementptr inbounds nuw i8, ptr %0, i64 8
  store i32 0, ptr %4, align 8, !tbaa !6
  %5 = getelementptr inbounds nuw i8, ptr %0, i64 16
  store ptr %1, ptr %5, align 8, !tbaa !10
  tail call void @_ZN3api7context13flush_objectsEv(ptr noundef nonnull align 8 dereferenceable(3056) %1)
  %6 = getelementptr inbounds nuw i8, ptr %1, i64 1468
  %7 = load i32, ptr %6, align 4, !tbaa !13
  %8 = getelementptr inbounds nuw i8, ptr %1, i64 1480
  %9 = load ptr, ptr %8, align 8, !tbaa !16
  %10 = icmp eq ptr %9, null
  br i1 %10, label %_ZN3api7context10add_objectEPNS_6objectE.exit, label %_ZNK6vectorIjLb0EjE5emptyEv.exit.i

_ZNK6vectorIjLb0EjE5emptyEv.exit.i:               ; preds = %2
  %11 = getelementptr inbounds i8, ptr %9, i64 -4
  %12 = load i32, ptr %11, align 4, !tbaa !19
  %13 = icmp eq i32 %12, 0
  br i1 %13, label %_ZN3api7context10add_objectEPNS_6objectE.exit, label %_ZN6vectorIjLb0EjE4backEv.exit.i

_ZN6vectorIjLb0EjE4backEv.exit.i:                 ; preds = %_ZNK6vectorIjLb0EjE5emptyEv.exit.i
  %14 = add i32 %12, -1
  %15 = zext i32 %14 to i64
  %16 = getelementptr inbounds nuw i32, ptr %9, i64 %15
  %17 = load i32, ptr %16, align 4, !tbaa !19
  store i32 %14, ptr %11, align 4, !tbaa !19
  br label %_ZN3api7context10add_objectEPNS_6objectE.exit

_ZN3api7context10add_objectEPNS_6objectE.exit:    ; preds = %2, %_ZNK6vectorIjLb0EjE5emptyEv.exit.i, %_ZN6vectorIjLb0EjE4backEv.exit.i
  %.0.i = phi i32 [ %7, %_ZNK6vectorIjLb0EjE5emptyEv.exit.i ], [ %17, %_ZN6vectorIjLb0EjE4backEv.exit.i ], [ %7, %2 ]
  %18 = getelementptr inbounds nuw i8, ptr %1, i64 1456
  call void @llvm.lifetime.start.p0(i64 16, ptr nonnull %3) #28
  store i32 %.0.i, ptr %3, align 8, !tbaa !20
  %19 = getelementptr inbounds nuw i8, ptr %3, i64 8
  store ptr %0, ptr %19, align 8, !tbaa !23
  call void @_ZN14core_hashtableI17default_map_entryIjPN3api6objectEEN9table2mapIS4_6u_hash4u_eqE15entry_hash_procENS8_13entry_eq_procEE6insertEO9_key_dataIjS3_E(ptr noundef nonnull align 8 dereferenceable(24) %18, ptr noundef nonnull align 8 dereferenceable(16) %3)
  call void @llvm.lifetime.end.p0(i64 16, ptr nonnull %3) #28
  %20 = getelementptr inbounds nuw i8, ptr %0, i64 12
  store i32 %.0.i, ptr %20, align 4, !tbaa !24
  ret void
}